target datalayout = "e-m:e-p270:32:32-p271:32:32-p272:64:64-i64:64-i128:128-f80:128-n8:16:32:64-S128"
target triple = "x86_64-pc-linux-gnu"

%struct.tm = type { i32, i32, i32, i32, i32, i32, i32, i32, i32, i64, ptr }
%struct.asn1_string_st = type { i32, i32, ptr, i64 }

@.str.4 = private unnamed_addr constant [15 x i8] c"Bad time value\00", align 1
@.str.5 = private unnamed_addr constant [35 x i8] c"%4d-%02d-%02d %02d:%02d:%02d.%.*sZ\00", align 1
@.str.6 = private unnamed_addr constant [34 x i8] c"%s %2d %02d:%02d:%02d.%.*s %d GMT\00", align 1
@_asn1_mon = internal constant [12 x [4 x i8]] [[4 x i8] c"Jan\00", [4 x i8] c"Feb\00", [4 x i8] c"Mar\00", [4 x i8] c"Apr\00", [4 x i8] c"May\00", [4 x i8] c"Jun\00", [4 x i8] c"Jul\00", [4 x i8] c"Aug\00", [4 x i8] c"Sep\00", [4 x i8] c"Oct\00", [4 x i8] c"Nov\00", [4 x i8] c"Dec\00"], align 16
@.str.7 = private unnamed_addr constant [30 x i8] c"%4d-%02d-%02d %02d:%02d:%02dZ\00", align 1
@.str.8 = private unnamed_addr constant [29 x i8] c"%s %2d %02d:%02d:%02d %d GMT\00", align 1

; Function Attrs: nounwind uwtable
define dso_local i32 @ossl_asn1_time_print_ex(ptr noundef %0, ptr noundef %1, i64 noundef %2) #0 {
  %4 = alloca i32, align 4
  %5 = alloca ptr, align 8
  %6 = alloca ptr, align 8
  %7 = alloca i64, align 8
  %8 = alloca ptr, align 8
  %9 = alloca i32, align 4
  %10 = alloca %struct.tm, align 8
  %11 = alloca i8, align 1
  %12 = alloca i32, align 4
  %13 = alloca ptr, align 8
  %14 = alloca i32, align 4
  store ptr %0, ptr %5, align 8, !tbaa !43
  store ptr %1, ptr %6, align 8, !tbaa !13
  store i64 %2, ptr %7, align 8, !tbaa !11
  call void @llvm.lifetime.start.p0(i64 8, ptr %8) #7
  call void @llvm.lifetime.start.p0(i64 4, ptr %9) #7
  call void @llvm.lifetime.start.p0(i64 56, ptr %10) #7
  call void @llvm.lifetime.start.p0(i64 1, ptr %11) #7
  store i8 46, ptr %11, align 1, !tbaa !19
  %15 = load ptr, ptr %6, align 8, !tbaa !13
  %16 = call i32 @ossl_asn1_time_to_tm(ptr noundef %10, ptr noundef %15)
  %17 = icmp ne i32 %16, 0
  br i1 %17, label %23, label %18

18:                                               ; preds = %3
  %19 = load ptr, ptr %5, align 8, !tbaa !43
  %20 = call i32 @BIO_write(ptr noundef %19, ptr noundef @.str.4, i32 noundef 14)
  %21 = icmp ne i32 %20, 0
  %22 = select i1 %21, i32 -1, i32 0
  store i32 %22, ptr %4, align 4
  store i32 1, ptr %12, align 4
  br label %167

23:                                               ; preds = %3
  %24 = load ptr, ptr %6, align 8, !tbaa !13
  %25 = getelementptr inbounds nuw %struct.asn1_string_st, ptr %24, i32 0, i32 0
  %26 = load i32, ptr %25, align 8, !tbaa !24
  store i32 %26, ptr %9, align 4, !tbaa !17
  %27 = load ptr, ptr %6, align 8, !tbaa !13
  %28 = getelementptr inbounds nuw %struct.asn1_string_st, ptr %27, i32 0, i32 2
  %29 = load ptr, ptr %28, align 8, !tbaa !25
  store ptr %29, ptr %8, align 8, !tbaa !26
  %30 = load ptr, ptr %6, align 8, !tbaa !13
  %31 = getelementptr inbounds nuw %struct.asn1_string_st, ptr %30, i32 0, i32 1
  %32 = load i32, ptr %31, align 4, !tbaa !20
  %33 = icmp eq i32 %32, 24
  br i1 %33, label %34, label %123

34:                                               ; preds = %23
  call void @llvm.lifetime.start.p0(i64 8, ptr %13) #7
  store ptr null, ptr %13, align 8, !tbaa !26
  call void @llvm.lifetime.start.p0(i64 4, ptr %14) #7
  store i32 0, ptr %14, align 4, !tbaa !17
  %35 = load ptr, ptr %6, align 8, !tbaa !13
  %36 = getelementptr inbounds nuw %struct.asn1_string_st, ptr %35, i32 0, i32 0
  %37 = load i32, ptr %36, align 8, !tbaa !24
  %38 = icmp sgt i32 %37, 15
  br i1 %38, label %39, label %68

39:                                               ; preds = %34
  %40 = load ptr, ptr %8, align 8, !tbaa !26
  %41 = getelementptr inbounds i8, ptr %40, i64 14
  %42 = load i8, ptr %41, align 1, !tbaa !19
  %43 = sext i8 %42 to i32
  %44 = icmp eq i32 %43, 46
  br i1 %44, label %45, label %68

45:                                               ; preds = %39
  %46 = load ptr, ptr %8, align 8, !tbaa !26
  %47 = getelementptr inbounds i8, ptr %46, i64 15
  store ptr %47, ptr %13, align 8, !tbaa !26
  store i32 0, ptr %14, align 4, !tbaa !17
  br label %48

48:                                               ; preds = %64, %45
  %49 = load i32, ptr %14, align 4, !tbaa !17
  %50 = add nsw i32 15, %49
  %51 = load i32, ptr %9, align 4, !tbaa !17
  %52 = icmp slt i32 %50, %51
  br i1 %52, label %53, label %62

53:                                               ; preds = %48
  %54 = load ptr, ptr %13, align 8, !tbaa !26
  %55 = load i32, ptr %14, align 4, !tbaa !17
  %56 = sext i32 %55 to i64
  %57 = getelementptr inbounds i8, ptr %54, i64 %56
  %58 = load i8, ptr %57, align 1, !tbaa !19
  %59 = sext i8 %58 to i32
  %60 = call i32 @ossl_ascii_isdigit(i32 noundef %59)
  %61 = icmp ne i32 %60, 0
  br label %62

62:                                               ; preds = %53, %48
  %63 = phi i1 [ false, %48 ], [ %61, %53 ]
  br i1 %63, label %64, label %67

64:                                               ; preds = %62
  %65 = load i32, ptr %14, align 4, !tbaa !17
  %66 = add nsw i32 %65, 1
  store i32 %66, ptr %14, align 4, !tbaa !17
  br label %48, !llvm.loop !45

67:                                               ; preds = %62
  br label %68

68:                                               ; preds = %67, %39, %34
  %69 = load i32, ptr %14, align 4, !tbaa !17
  %70 = icmp sgt i32 %69, 0
  br i1 %70, label %71, label %119

71:                                               ; preds = %68
  %72 = load i64, ptr %7, align 8, !tbaa !11
  %73 = and i64 %72, 15
  %74 = icmp eq i64 %73, 1
  br i1 %74, label %75, label %96

75:                                               ; preds = %71
  %76 = load ptr, ptr %5, align 8, !tbaa !43
  %77 = getelementptr inbounds nuw %struct.tm, ptr %10, i32 0, i32 5
  %78 = load i32, ptr %77, align 4, !tbaa !27
  %79 = add nsw i32 %78, 1900
  %80 = getelementptr inbounds nuw %struct.tm, ptr %10, i32 0, i32 4
  %81 = load i32, ptr %80, align 8, !tbaa !29
  %82 = add nsw i32 %81, 1
  %83 = getelementptr inbounds nuw %struct.tm, ptr %10, i32 0, i32 3
  %84 = load i32, ptr %83, align 4, !tbaa !30
  %85 = getelementptr inbounds nuw %struct.tm, ptr %10, i32 0, i32 2
  %86 = load i32, ptr %85, align 8, !tbaa !31
  %87 = getelementptr inbounds nuw %struct.tm, ptr %10, i32 0, i32 1
  %88 = load i32, ptr %87, align 4, !tbaa !32
  %89 = getelementptr inbounds nuw %struct.tm, ptr %10, i32 0, i32 0
  %90 = load i32, ptr %89, align 8, !tbaa !33
  %91 = load i32, ptr %14, align 4, !tbaa !17
  %92 = load ptr, ptr %13, align 8, !tbaa !26
  %93 = call i32 (ptr, ptr, ...) @BIO_printf(ptr noundef %76, ptr noundef @.str.5, i32 noundef %79, i32 noundef %82, i32 noundef %84, i32 noundef %86, i32 noundef %88, i32 noundef %90, i32 noundef %91, ptr noundef %92)
  %94 = icmp sgt i32 %93, 0
  %95 = zext i1 %94 to i32
  store i32 %95, ptr %4, align 4
  store i32 1, ptr %12, align 4
  br label %120

96:                                               ; preds = %71
  %97 = load ptr, ptr %5, align 8, !tbaa !43
  %98 = getelementptr inbounds nuw %struct.tm, ptr %10, i32 0, i32 4
  %99 = load i32, ptr %98, align 8, !tbaa !29
  %100 = sext i32 %99 to i64
  %101 = getelementptr inbounds [12 x [4 x i8]], ptr @_asn1_mon, i64 0, i64 %100
  %102 = getelementptr inbounds [4 x i8], ptr %101, i64 0, i64 0
  %103 = getelementptr inbounds nuw %struct.tm, ptr %10, i32 0, i32 3
  %104 = load i32, ptr %103, align 4, !tbaa !30
  %105 = getelementptr inbounds nuw %struct.tm, ptr %10, i32 0, i32 2
  %106 = load i32, ptr %105, align 8, !tbaa !31
  %107 = getelementptr inbounds nuw %struct.tm, ptr %10, i32 0, i32 1
  %108 = load i32, ptr %107, align 4, !tbaa !32
  %109 = getelementptr inbounds nuw %struct.tm, ptr %10, i32 0, i32 0
  %110 = load i32, ptr %109, align 8, !tbaa !33
  %111 = load i32, ptr %14, align 4, !tbaa !17
  %112 = load ptr, ptr %13, align 8, !tbaa !26
  %113 = getelementptr inbounds nuw %struct.tm, ptr %10, i32 0, i32 5
  %114 = load i32, ptr %113, align 4, !tbaa !27
  %115 = add nsw i32 %114, 1900
  %116 = call i32 (ptr, ptr, ...) @BIO_printf(ptr noundef %97, ptr noundef @.str.6, ptr noundef %102, i32 noundef %104, i32 noundef %106, i32 noundef %108, i32 noundef %110, i32 noundef %111, ptr noundef %112, i32 noundef %115)
  %117 = icmp sgt i32 %116, 0
  %118 = zext i1 %117 to i32
  store i32 %118, ptr %4, align 4
  store i32 1, ptr %12, align 4
  br label %120

119:                                              ; preds = %68
  store i32 0, ptr %12, align 4
  br label %120

120:                                              ; preds = %119, %96, %75
  call void @llvm.lifetime.end.p0(i64 4, ptr %14) #7
  call void @llvm.lifetime.end.p0(i64 8, ptr %13) #7
  %121 = load i32, ptr %12, align 4
  switch i32 %121, label %167 [
    i32 0, label %122
  ]

122:                                              ; preds = %120
  br label %123

123:                                              ; preds = %122, %23
  %124 = load i64, ptr %7, align 8, !tbaa !11
  %125 = and i64 %124, 15
  %126 = icmp eq i64 %125, 1
  br i1 %126, label %127, label %146

127:                                              ; preds = %123
  %128 = load ptr, ptr %5, align 8, !tbaa !43
  %129 = getelementptr inbounds nuw %struct.tm, ptr %10, i32 0, i32 5
  %130 = load i32, ptr %129, align 4, !tbaa !27
  %131 = add nsw i32 %130, 1900
  %132 = getelementptr inbounds nuw %struct.tm, ptr %10, i32 0, i32 4
  %133 = load i32, ptr %132, align 8, !tbaa !29
  %134 = add nsw i32 %133, 1
  %135 = getelementptr inbounds nuw %struct.tm, ptr %10, i32 0, i32 3
  %136 = load i32, ptr %135, align 4, !tbaa !30
  %137 = getelementptr inbounds nuw %struct.tm, ptr %10, i32 0, i32 2
  %138 = load i32, ptr %137, align 8, !tbaa !31
  %139 = getelementptr inbounds nuw %struct.tm, ptr %10, i32 0, i32 1
  %140 = load i32, ptr %139, align 4, !tbaa !32
  %141 = getelementptr inbounds nuw %struct.tm, ptr %10, i32 0, i32 0
  %142 = load i32, ptr %141, align 8, !tbaa !33
  %143 = call i32 (ptr, ptr, ...) @BIO_printf(ptr noundef %128, ptr noundef @.str.7, i32 noundef %131, i32 noundef %134, i32 noundef %136, i32 noundef %138, i32 noundef %140, i32 noundef %142)
  %144 = icmp sgt i32 %143, 0
  %145 = zext i1 %144 to i32
  store i32 %145, ptr %4, align 4
  store i32 1, ptr %12, align 4
  br label %167

146:                                              ; preds = %123
  %147 = load ptr, ptr %5, align 8, !tbaa !43
  %148 = getelementptr inbounds nuw %struct.tm, ptr %10, i32 0, i32 4
  %149 = load i32, ptr %148, align 8, !tbaa !29
  %150 = sext i32 %149 to i64
  %151 = getelementptr inbounds [12 x [4 x i8]], ptr @_asn1_mon, i64 0, i64 %150
  %152 = getelementptr inbounds [4 x i8], ptr %151, i64 0, i64 0
  %153 = getelementptr inbounds nuw %struct.tm, ptr %10, i32 0, i32 3
  %154 = load i32, ptr %153, align 4, !tbaa !30
  %155 = getelementptr inbounds nuw %struct.tm, ptr %10, i32 0, i32 2
  %156 = load i32, ptr %155, align 8, !tbaa !31
  %157 = getelementptr inbounds nuw %struct.tm, ptr %10, i32 0, i32 1
  %158 = load i32, ptr %157, align 4, !tbaa !32
  %159 = getelementptr inbounds nuw %struct.tm, ptr %10, i32 0, i32 0
  %160 = load i32, ptr %159, align 8, !tbaa !33
  %161 = getelementptr inbounds nuw %struct.tm, ptr %10, i32 0, i32 5
  %162 = load i32, ptr %161, align 4, !tbaa !27
  %163 = add nsw i32 %162, 1900
  %164 = call i32 (ptr, ptr, ...) @BIO_printf(ptr noundef %147, ptr noundef @.str.8, ptr noundef %152, i32 noundef %154, i32 noundef %156, i32 noundef %158, i32 noundef %160, i32 noundef %163)
  %165 = icmp sgt i32 %164, 0
  %166 = zext i1 %165 to i32
  store i32 %166, ptr %4, align 4
  store i32 1, ptr %12, align 4
  br label %167

167:                                              ; preds = %146, %127, %120, %18
  call void @llvm.lifetime.end.p0(i64 1, ptr %11) #7
  call void @llvm.lifetime.end.p0(i64 56, ptr %10) #7
  call void @llvm.lifetime.end.p0(i64 4, ptr %9) #7
  call void @llvm.lifetime.end.p0(i64 8, ptr %8) #7
  %168 = load i32, ptr %4, align 4
  ret i32 %168
}