; Function Attrs: nounwind uwtable
define dso_local range(i32 -1, 2) i32 @ossl_asn1_time_print_ex(ptr noundef %0, ptr noundef readonly captures(none) %1, i64 noundef %2) local_unnamed_addr #1 {
  %4 = alloca %struct.tm, align 8
  call void @llvm.lifetime.start.p0(i64 56, ptr nonnull %4) #8
  %5 = call i32 @ossl_asn1_time_to_tm(ptr noundef nonnull %4, ptr noundef %1)
  %.not = icmp eq i32 %5, 0
  br i1 %.not, label %6, label %9

6:                                                ; preds = %3
  %7 = call i32 @BIO_write(ptr noundef %0, ptr noundef nonnull @.str.4, i32 noundef 14) #8
  %.not30 = icmp ne i32 %7, 0
  %8 = sext i1 %.not30 to i32
  br label %104

9:                                                ; preds = %3
  %10 = load i32, ptr %1, align 8, !tbaa !13
  %11 = getelementptr inbounds nuw i8, ptr %1, i64 8
  %12 = load ptr, ptr %11, align 8, !tbaa !14
  %13 = getelementptr inbounds nuw i8, ptr %1, i64 4
  %14 = load i32, ptr %13, align 4, !tbaa !4
  %15 = icmp eq i32 %14, 24
  %16 = icmp sgt i32 %10, 15
  %or.cond = select i1 %15, i1 %16, i1 false
  br i1 %or.cond, label %17, label %.thread

17:                                               ; preds = %9
  %18 = getelementptr inbounds nuw i8, ptr %12, i64 14
  %19 = load i8, ptr %18, align 1, !tbaa !15
  %20 = icmp eq i8 %19, 46
  br i1 %20, label %.lr.ph.preheader, label %.thread

.lr.ph.preheader:                                 ; preds = %17
  %21 = getelementptr inbounds nuw i8, ptr %12, i64 15
  %22 = add nsw i32 %10, -15
  %wide.trip.count = zext nneg i32 %22 to i64
  br label %.lr.ph

.lr.ph:                                           ; preds = %.lr.ph.preheader, %27
  %indvars.iv = phi i64 [ 0, %.lr.ph.preheader ], [ %indvars.iv.next, %27 ]
  %23 = getelementptr inbounds nuw i8, ptr %21, i64 %indvars.iv
  %24 = load i8, ptr %23, align 1, !tbaa !15
  %25 = sext i8 %24 to i32
  %26 = call i32 @ossl_ascii_isdigit(i32 noundef %25) #8
  %.not31 = icmp eq i32 %26, 0
  br i1 %.not31, label %.critedge.split.loop.exit43, label %27

27:                                               ; preds = %.lr.ph
  %indvars.iv.next = add nuw nsw i64 %indvars.iv, 1
  %exitcond.not = icmp eq i64 %indvars.iv.next, %wide.trip.count
  br i1 %exitcond.not, label %.critedge, label %.lr.ph, !llvm.loop !35

.critedge.split.loop.exit43:                      ; preds = %.lr.ph
  %28 = trunc nuw nsw i64 %indvars.iv to i32
  br label %.critedge

.critedge:                                        ; preds = %27, %.critedge.split.loop.exit43
  %.1.lcssa.ph = phi i32 [ %28, %.critedge.split.loop.exit43 ], [ %22, %27 ]
  %.not32 = icmp eq i32 %.1.lcssa.ph, 0
  br i1 %.not32, label %.thread, label %29

29:                                               ; preds = %.critedge
  %30 = and i64 %2, 15
  %31 = icmp eq i64 %30, 1
  br i1 %31, label %32, label %49

32:                                               ; preds = %29
  %33 = getelementptr inbounds nuw i8, ptr %4, i64 20
  %34 = load i32, ptr %33, align 4, !tbaa !17
  %35 = add nsw i32 %34, 1900
  %36 = getelementptr inbounds nuw i8, ptr %4, i64 16
  %37 = load i32, ptr %36, align 8, !tbaa !19
  %38 = add nsw i32 %37, 1
  %39 = getelementptr inbounds nuw i8, ptr %4, i64 12
  %40 = load i32, ptr %39, align 4, !tbaa !20
  %41 = getelementptr inbounds nuw i8, ptr %4, i64 8
  %42 = load i32, ptr %41, align 8, !tbaa !23
  %43 = getelementptr inbounds nuw i8, ptr %4, i64 4
  %44 = load i32, ptr %43, align 4, !tbaa !24
  %45 = load i32, ptr %4, align 8, !tbaa !25
  %46 = call i32 (ptr, ptr, ...) @BIO_printf(ptr noundef %0, ptr noundef nonnull @.str.5, i32 noundef %35, i32 noundef %38, i32 noundef %40, i32 noundef %42, i32 noundef %44, i32 noundef %45, i32 noundef %.1.lcssa.ph, ptr noundef nonnull %21) #8
  %47 = icmp sgt i32 %46, 0
  %48 = zext i1 %47 to i32
  br label %104

49:                                               ; preds = %29
  %50 = getelementptr inbounds nuw i8, ptr %4, i64 16
  %51 = load i32, ptr %50, align 8, !tbaa !19
  %52 = sext i32 %51 to i64
  %53 = getelementptr inbounds [12 x [4 x i8]], ptr @_asn1_mon, i64 0, i64 %52
  %54 = getelementptr inbounds nuw i8, ptr %4, i64 12
  %55 = load i32, ptr %54, align 4, !tbaa !20
  %56 = getelementptr inbounds nuw i8, ptr %4, i64 8
  %57 = load i32, ptr %56, align 8, !tbaa !23
  %58 = getelementptr inbounds nuw i8, ptr %4, i64 4
  %59 = load i32, ptr %58, align 4, !tbaa !24
  %60 = load i32, ptr %4, align 8, !tbaa !25
  %61 = getelementptr inbounds nuw i8, ptr %4, i64 20
  %62 = load i32, ptr %61, align 4, !tbaa !17
  %63 = add nsw i32 %62, 1900
  %64 = call i32 (ptr, ptr, ...) @BIO_printf(ptr noundef %0, ptr noundef nonnull @.str.6, ptr noundef nonnull %53, i32 noundef %55, i32 noundef %57, i32 noundef %59, i32 noundef %60, i32 noundef %.1.lcssa.ph, ptr noundef nonnull %21, i32 noundef %63) #8
  %65 = icmp sgt i32 %64, 0
  %66 = zext i1 %65 to i32
  br label %104

.thread:                                          ; preds = %17, %.critedge, %9
  %67 = and i64 %2, 15
  %68 = icmp eq i64 %67, 1
  br i1 %68, label %69, label %86

69:                                               ; preds = %.thread
  %70 = getelementptr inbounds nuw i8, ptr %4, i64 20
  %71 = load i32, ptr %70, align 4, !tbaa !17
  %72 = add nsw i32 %71, 1900
  %73 = getelementptr inbounds nuw i8, ptr %4, i64 16
  %74 = load i32, ptr %73, align 8, !tbaa !19
  %75 = add nsw i32 %74, 1
  %76 = getelementptr inbounds nuw i8, ptr %4, i64 12
  %77 = load i32, ptr %76, align 4, !tbaa !20
  %78 = getelementptr inbounds nuw i8, ptr %4, i64 8
  %79 = load i32, ptr %78, align 8, !tbaa !23
  %80 = getelementptr inbounds nuw i8, ptr %4, i64 4
  %81 = load i32, ptr %80, align 4, !tbaa !24
  %82 = load i32, ptr %4, align 8, !tbaa !25
  %83 = call i32 (ptr, ptr, ...) @BIO_printf(ptr noundef %0, ptr noundef nonnull @.str.7, i32 noundef %72, i32 noundef %75, i32 noundef %77, i32 noundef %79, i32 noundef %81, i32 noundef %82) #8
  %84 = icmp sgt i32 %83, 0
  %85 = zext i1 %84 to i32
  br label %104

86:                                               ; preds = %.thread
  %87 = getelementptr inbounds nuw i8, ptr %4, i64 16
  %88 = load i32, ptr %87, align 8, !tbaa !19
  %89 = sext i32 %88 to i64
  %90 = getelementptr inbounds [12 x [4 x i8]], ptr @_asn1_mon, i64 0, i64 %89
  %91 = getelementptr inbounds nuw i8, ptr %4, i64 12
  %92 = load i32, ptr %91, align 4, !tbaa !20
  %93 = getelementptr inbounds nuw i8, ptr %4, i64 8
  %94 = load i32, ptr %93, align 8, !tbaa !23
  %95 = getelementptr inbounds nuw i8, ptr %4, i64 4
  %96 = load i32, ptr %95, align 4, !tbaa !24
  %97 = load i32, ptr %4, align 8, !tbaa !25
  %98 = getelementptr inbounds nuw i8, ptr %4, i64 20
  %99 = load i32, ptr %98, align 4, !tbaa !17
  %100 = add nsw i32 %99, 1900
  %101 = call i32 (ptr, ptr, ...) @BIO_printf(ptr noundef %0, ptr noundef nonnull @.str.8, ptr noundef nonnull %90, i32 noundef %92, i32 noundef %94, i32 noundef %96, i32 noundef %97, i32 noundef %100) #8
  %102 = icmp sgt i32 %101, 0
  %103 = zext i1 %102 to i32
  br label %104

104:                                              ; preds = %32, %49, %86, %69, %6
  %.027 = phi i32 [ %85, %69 ], [ %103, %86 ], [ %8, %6 ], [ %48, %32 ], [ %66, %49 ]
  call void @llvm.lifetime.end.p0(i64 56, ptr nonnull %4) #8
  ret i32 %.027
}